; Function Attrs: nounwind uwtable
define hidden range(i32 -2147483647, -2147483648) i32 @SDL_GetNumAudioDrivers_REAL() local_unnamed_addr #0 {
  %1 = load i32, ptr @SDL_GetNumAudioDrivers_REAL.num_drivers, align 4
  %2 = icmp sgt i32 %1, -1
  br i1 %2, label %22, label %3

3:                                                ; preds = %0
  store i32 0, ptr @SDL_GetNumAudioDrivers_REAL.num_drivers, align 4
  br label %.preheader

.preheader:                                       ; preds = %3, %.loopexit
  %indvars.iv18 = phi i64 [ 0, %3 ], [ %indvars.iv.next19, %.loopexit ]
  %4 = phi ptr [ @bootstrap, %3 ], [ %21, %.loopexit ]
  %.not16 = icmp eq i64 %indvars.iv18, 0
  br i1 %.not16, label %.critedge, label %.lr.ph

.lr.ph:                                           ; preds = %.preheader
  %5 = load ptr, ptr %4, align 8
  br label %9

6:                                                ; preds = %.loopexit
  %7 = load i32, ptr @SDL_GetNumAudioDrivers_REAL.num_drivers, align 4
  br label %22

8:                                                ; preds = %9
  %indvars.iv.next = add nuw nsw i64 %indvars.iv, 1
  %exitcond.not = icmp eq i64 %indvars.iv.next, %indvars.iv18
  br i1 %exitcond.not, label %.critedge, label %9, !llvm.loop !3

9:                                                ; preds = %.lr.ph, %8
  %indvars.iv = phi i64 [ 0, %.lr.ph ], [ %indvars.iv.next, %8 ]
  %10 = load ptr, ptr %5, align 8
  %11 = getelementptr inbounds nuw [4 x ptr], ptr @bootstrap, i64 0, i64 %indvars.iv
  %12 = load ptr, ptr %11, align 8
  %13 = load ptr, ptr %12, align 8
  %14 = tail call i32 @SDL_strcmp_REAL(ptr noundef %10, ptr noundef %13) #14
  %15 = icmp eq i32 %14, 0
  br i1 %15, label %.loopexit, label %8

.critedge:                                        ; preds = %8, %.preheader
  %16 = load ptr, ptr %4, align 8
  %17 = load i32, ptr @SDL_GetNumAudioDrivers_REAL.num_drivers, align 4
  %18 = add nsw i32 %17, 1
  store i32 %18, ptr @SDL_GetNumAudioDrivers_REAL.num_drivers, align 4
  %19 = sext i32 %17 to i64
  %20 = getelementptr inbounds [3 x ptr], ptr @deduped_bootstrap, i64 0, i64 %19
  store ptr %16, ptr %20, align 8
  br label %.loopexit

.loopexit:                                        ; preds = %9, %.critedge
  %indvars.iv.next19 = add nuw nsw i64 %indvars.iv18, 1
  %21 = getelementptr inbounds nuw [4 x ptr], ptr @bootstrap, i64 0, i64 %indvars.iv.next19
  %.not = icmp eq i64 %indvars.iv.next19, 3
  br i1 %.not, label %6, label %.preheader, !llvm.loop !5

22:                                               ; preds = %0, %6
  %.012 = phi i32 [ %7, %6 ], [ %1, %0 ]
  ret i32 %.012
}